; Function Attrs: mustprogress nofree norecurse nosync nounwind willreturn memory(read, inaccessiblemem: none) uwtable
define dso_local { i64, i32 } @_ZNK5clang13HeaderMapImpl9getBucketEj(ptr nocapture noundef nonnull readonly align 8 dereferenceable(40) %0, i32 noundef %1) local_unnamed_addr #6 align 2 {
  %3 = load ptr, ptr %0, align 8
  %4 = getelementptr inbounds nuw i8, ptr %3, i64 8
  %5 = load ptr, ptr %4, align 8
  %6 = getelementptr inbounds i8, ptr %5, i64 24
  %7 = zext i32 %1 to i64
  %8 = getelementptr inbounds %"struct.clang::HMapBucket", ptr %6, i64 %7
  %9 = load i32, ptr %8, align 4
  %10 = getelementptr inbounds nuw i8, ptr %0, i64 8
  %11 = load i8, ptr %10, align 8
  %12 = trunc i8 %11 to i1
  %13 = tail call i32 @llvm.bswap.i32(i32 %9)
  %spec.select.i = select i1 %12, i32 %13, i32 %9
  %14 = getelementptr inbounds nuw i8, ptr %8, i64 4
  %15 = load i32, ptr %14, align 4
  %16 = tail call i32 @llvm.bswap.i32(i32 %15)
  %spec.select.i6 = select i1 %12, i32 %16, i32 %15
  %17 = getelementptr inbounds nuw i8, ptr %8, i64 8
  %18 = load i32, ptr %17, align 4
  %19 = tail call i32 @llvm.bswap.i32(i32 %18)
  %spec.select.i7 = select i1 %12, i32 %19, i32 %18
  %.sroa.3.0.insert.ext = zext i32 %spec.select.i6 to i64
  %.sroa.3.0.insert.shift = shl nuw i64 %.sroa.3.0.insert.ext, 32
  %.sroa.05.0.insert.ext = zext i32 %spec.select.i to i64
  %.sroa.05.0.insert.insert = or disjoint i64 %.sroa.3.0.insert.shift, %.sroa.05.0.insert.ext
  %.fca.0.insert = insertvalue { i64, i32 } poison, i64 %.sroa.05.0.insert.insert, 0
  %.fca.1.insert = insertvalue { i64, i32 } %.fca.0.insert, i32 %spec.select.i7, 1
  ret { i64, i32 } %.fca.1.insert
}